; Function Attrs: mustprogress nofree norecurse nosync nounwind willreturn memory(argmem: readwrite) uwtable
define hidden void @_ZN10smt_params13setup_AUFLIRAEb(ptr nocapture noundef nonnull align 8 dereferenceable(800) %this, i1 noundef zeroext %simple_array) local_unnamed_addr #5 align 2 {
entry:
  %cond = select i1 %simple_array, i32 1, i32 3
  %m_array_mode = getelementptr inbounds i8, ptr %this, i64 396
  store i32 %cond, ptr %m_array_mode, align 4
  %m_phase_selection = getelementptr inbounds i8, ptr %this, i64 552
  store i32 0, ptr %m_phase_selection, align 8
  %m_eliminate_bounds = getelementptr inbounds i8, ptr %this, i64 56
  store i8 1, ptr %m_eliminate_bounds, align 8
  %m_qi_quick_checker = getelementptr inbounds i8, ptr %this, i64 200
  store i32 1, ptr %m_qi_quick_checker, align 8
  %m_qi_eager_threshold = getelementptr inbounds i8, ptr %this, i64 168
  store <2 x double> <double 5.000000e+00, double 2.000000e+01>, ptr %m_qi_eager_threshold, align 8
  %m_macro_finder = getelementptr inbounds i8, ptr %this, i64 51
  store i8 1, ptr %m_macro_finder, align 1
  %m_ng_lift_ite = getelementptr inbounds i8, ptr %this, i64 44
  %0 = load i32, ptr %m_ng_lift_ite, align 4
  %cmp = icmp eq i32 %0, 0
  br i1 %cmp, label %if.then, label %if.end

if.then:                                          ; preds = %entry
  store i32 1, ptr %m_ng_lift_ite, align 4
  br label %if.end

if.end:                                           ; preds = %if.then, %entry
  %m_pi_max_multi_patterns = getelementptr inbounds i8, ptr %this, i64 4
  store i32 10, ptr %m_pi_max_multi_patterns, align 4
  %m_array_lazy_ieq = getelementptr inbounds i8, ptr %this, i64 411
  store i8 1, ptr %m_array_lazy_ieq, align 1
  %m_array_lazy_ieq_delay = getelementptr inbounds i8, ptr %this, i64 412
  store i32 4, ptr %m_array_lazy_ieq_delay, align 4
  %m_mbqi = getelementptr inbounds i8, ptr %this, i64 215
  store i8 1, ptr %m_mbqi, align 1
  ret void
}